; Function Attrs: mustprogress nofree norecurse nosync nounwind willreturn memory(read, inaccessiblemem: none) uwtable
define internal { double, double } @_ZL13eqc_s_inverse5PJ_XYP8PJconsts(double %0, double %1, ptr noundef readonly captures(none) %2) #4 {
  %4 = getelementptr inbounds nuw i8, ptr %2, i64 88
  %5 = load ptr, ptr %4, align 8, !tbaa !3
  %6 = load double, ptr %5, align 8, !tbaa !39
  %7 = fdiv double %0, %6
  %8 = getelementptr inbounds nuw i8, ptr %2, i64 448
  %9 = load double, ptr %8, align 8, !tbaa !49
  %10 = fadd double %1, %9
  %.fca.0.insert = insertvalue { double, double } poison, double %7, 0
  %.fca.1.insert = insertvalue { double, double } %.fca.0.insert, double %10, 1
  ret { double, double } %.fca.1.insert
}